target datalayout = "e-m:e-p270:32:32-p271:32:32-p272:64:64-i64:64-i128:128-f80:128-n8:16:32:64-S128"
target triple = "x86_64-unknown-linux-gnu"

%"class.QuantLib::Date" = type { i64 }
%"class.boost::detail::shared_count" = type { ptr }
%"class.QuantLib::DayCounter" = type { %"class.boost::shared_ptr.6" }
%"class.boost::shared_ptr.6" = type { ptr, %"class.boost::detail::shared_count" }
%"class.QuantLib::MakeArithmeticAverageOIS" = type { %"class.QuantLib::Period", %"class.boost::shared_ptr.18", double, %"class.QuantLib::Period", i32, %"class.QuantLib::Date", %"class.QuantLib::Date", %"class.QuantLib::Calendar", i32, i32, i32, i8, i8, i8, double, double, i32, double, double, %"class.QuantLib::DayCounter", %"class.boost::shared_ptr.19" }
%"class.boost::shared_ptr.18" = type { ptr, %"class.boost::detail::shared_count" }
%"class.QuantLib::Period" = type { i32, i32 }
%"class.QuantLib::Calendar" = type { %"class.boost::shared_ptr.7" }
%"class.boost::shared_ptr.7" = type { ptr, %"class.boost::detail::shared_count" }
%"class.boost::shared_ptr.19" = type { ptr, %"class.boost::detail::shared_count" }

; Function Attrs: mustprogress nounwind uwtable
define noundef nonnull align 8 dereferenceable(168) ptr @_ZN8QuantLib24MakeArithmeticAverageOIS14withEndOfMonthEb(ptr noundef nonnull align 8 dereferenceable(168) %this, i1 noundef zeroext %flag) #1 align 2 {
entry:
  %this.addr = alloca ptr, align 8
  %flag.addr = alloca i8, align 1
  store ptr %this, ptr %this.addr, align 8, !tbaa !3
  %storedv = zext i1 %flag to i8
  store i8 %storedv, ptr %flag.addr, align 1, !tbaa !61
  %this1 = load ptr, ptr %this.addr, align 8
  %0 = load i8, ptr %flag.addr, align 1, !tbaa !61, !range !15, !noundef !16
  %loadedv = trunc i8 %0 to i1
  %endOfMonth_ = getelementptr inbounds nuw %"class.QuantLib::MakeArithmeticAverageOIS", ptr %this1, i32 0, i32 11
  %storedv2 = zext i1 %loadedv to i8
  store i8 %storedv2, ptr %endOfMonth_, align 4, !tbaa !60
  %isDefaultEOM_ = getelementptr inbounds nuw %"class.QuantLib::MakeArithmeticAverageOIS", ptr %this1, i32 0, i32 12
  store i8 0, ptr %isDefaultEOM_, align 1, !tbaa !49
  ret ptr %this1
}