; Function Attrs: mustprogress nofree norecurse nosync nounwind willreturn memory(argmem: write) uwtable
define noundef nonnull align 8 dereferenceable(168) ptr @_ZN8QuantLib24MakeArithmeticAverageOIS14withEndOfMonthEb(ptr noundef nonnull returned writeonly align 8 dereferenceable(168) %this, i1 noundef zeroext %flag) local_unnamed_addr #14 align 2 {
entry:
  %storedv = zext i1 %flag to i8
  %endOfMonth_ = getelementptr inbounds nuw i8, ptr %this, i64 92
  store i8 %storedv, ptr %endOfMonth_, align 4, !tbaa !79
  %isDefaultEOM_ = getelementptr inbounds nuw i8, ptr %this, i64 93
  store i8 0, ptr %isDefaultEOM_, align 1, !tbaa !66
  ret ptr %this
}